; Function Attrs: mustprogress uwtable
define dso_local void @_ZN4base15DictionaryValue4FromESt10unique_ptrINS_5ValueESt14default_deleteIS2_EE(ptr noalias nocapture writeonly sret(%"class.std::unique_ptr.25") align 8 %agg.result, ptr nocapture noundef %value) local_unnamed_addr #3 align 2 personality ptr @__gxx_personality_v0 {
entry:
  %out = alloca ptr, align 8
  %0 = load ptr, ptr %value, align 8
  %cmp.i.not = icmp eq ptr %0, null
  br i1 %cmp.i.not, label %return, label %land.lhs.true

land.lhs.true:                                    ; preds = %entry
  %vtable = load ptr, ptr %0, align 8
  %vfn = getelementptr inbounds i8, ptr %vtable, i64 88
  %1 = load ptr, ptr %vfn, align 8
  %call2 = call noundef zeroext i1 %1(ptr noundef nonnull align 8 dereferenceable(12) %0, ptr noundef nonnull %out)
  br i1 %call2, label %if.then, label %return

if.then:                                          ; preds = %land.lhs.true
  store ptr null, ptr %value, align 8
  %2 = load ptr, ptr %out, align 8
  br label %return

return:                                           ; preds = %entry, %land.lhs.true, %if.then
  %storemerge = phi ptr [ %2, %if.then ], [ null, %land.lhs.true ], [ null, %entry ]
  store ptr %storemerge, ptr %agg.result, align 8
  ret void
}